target datalayout = "e-m:e-p270:32:32-p271:32:32-p272:64:64-i64:64-i128:128-f80:128-n8:16:32:64-S128"
target triple = "x86_64-pc-linux-gnu"

%"struct.std::__1::__locale::__locale_guard" = type { ptr }
%"class.std::__1::locale::facet" = type { %"class.std::__1::__shared_count" }
%"class.std::__1::__shared_count" = type { ptr, i64 }
%"class.std::__1::codecvt.37" = type { %"class.std::__1::locale::facet", ptr }

; Function Attrs: mustprogress nounwind uwtable
define linkonce_odr hidden void @_ZNSt3__18__locale14__locale_guardD2B8ne210000Ev(ptr noundef nonnull align 8 dereferenceable(8) %0) unnamed_addr #0 comdat align 2 {
  %2 = alloca ptr, align 8
  store ptr %0, ptr %2, align 8, !tbaa !732
  %3 = load ptr, ptr %2, align 8
  %4 = getelementptr inbounds nuw %"struct.std::__1::__locale::__locale_guard", ptr %3, i32 0, i32 0
  %5 = load ptr, ptr %4, align 8, !tbaa !734
  %6 = icmp ne ptr %5, null
  br i1 %6, label %7, label %11

7:                                                ; preds = %1
  %8 = getelementptr inbounds nuw %"struct.std::__1::__locale::__locale_guard", ptr %3, i32 0, i32 0
  %9 = load ptr, ptr %8, align 8, !tbaa !734
  %10 = call ptr @uselocale(ptr noundef %9) #13
  br label %11

11:                                               ; preds = %7, %1
  ret void
}

; Function Attrs: inlinehint mustprogress nounwind uwtable
define available_externally i64 @mbrlen(ptr noalias noundef %0, i64 noundef %1, ptr noalias noundef %2) #4 {
  %4 = alloca ptr, align 8
  %5 = alloca i64, align 8
  %6 = alloca ptr, align 8
  store ptr %0, ptr %4, align 8, !tbaa !9
  store i64 %1, ptr %5, align 8, !tbaa !16
  store ptr %2, ptr %6, align 8, !tbaa !55
  %7 = load ptr, ptr %6, align 8, !tbaa !55
  %8 = icmp ne ptr %7, null
  br i1 %8, label %9, label %14

9:                                                ; preds = %3
  %10 = load ptr, ptr %4, align 8, !tbaa !9
  %11 = load i64, ptr %5, align 8, !tbaa !16
  %12 = load ptr, ptr %6, align 8, !tbaa !55
  %13 = call i64 @mbrtowc(ptr noundef null, ptr noundef %10, i64 noundef %11, ptr noundef %12) #13
  br label %18

14:                                               ; preds = %3
  %15 = load ptr, ptr %4, align 8, !tbaa !9
  %16 = load i64, ptr %5, align 8, !tbaa !16
  %17 = call i64 @__mbrlen(ptr noundef %15, i64 noundef %16, ptr noundef null) #13
  br label %18

18:                                               ; preds = %14, %9
  %19 = phi i64 [ %13, %9 ], [ %17, %14 ]
  ret i64 %19
}

; Function Attrs: mustprogress nounwind uwtable
define linkonce_odr hidden void @_ZNSt3__18__locale14__locale_guardC2B8ne210000ERP15__locale_struct(ptr noundef nonnull align 8 dereferenceable(8) %0, ptr noundef nonnull align 8 dereferenceable(8) %1) unnamed_addr #0 comdat align 2 {
  %3 = alloca ptr, align 8
  %4 = alloca ptr, align 8
  store ptr %0, ptr %3, align 8, !tbaa !732
  store ptr %1, ptr %4, align 8, !tbaa !615
  %5 = load ptr, ptr %3, align 8
  %6 = getelementptr inbounds nuw %"struct.std::__1::__locale::__locale_guard", ptr %5, i32 0, i32 0
  %7 = load ptr, ptr %4, align 8, !tbaa !615
  %8 = load ptr, ptr %7, align 8, !tbaa !102
  %9 = call ptr @uselocale(ptr noundef %8) #13
  store ptr %9, ptr %6, align 8, !tbaa !734
  ret void
}

; Function Attrs: inlinehint mustprogress uwtable
define linkonce_odr hidden noundef i64 @_ZNSt3__18__locale8__mbrlenB8ne210000EPKcmP11__mbstate_tP15__locale_struct(ptr noundef %0, i64 noundef %1, ptr noundef %2, ptr noundef %3) #6 comdat {
  %5 = alloca ptr, align 8
  %6 = alloca i64, align 8
  %7 = alloca ptr, align 8
  %8 = alloca ptr, align 8
  %9 = alloca %"struct.std::__1::__locale::__locale_guard", align 8
  store ptr %0, ptr %5, align 8, !tbaa !9
  store i64 %1, ptr %6, align 8, !tbaa !16
  store ptr %2, ptr %7, align 8, !tbaa !55
  store ptr %3, ptr %8, align 8, !tbaa !102
  call void @llvm.lifetime.start.p0(i64 8, ptr %9) #13
  call void @_ZNSt3__18__locale14__locale_guardC2B8ne210000ERP15__locale_struct(ptr noundef nonnull align 8 dereferenceable(8) %9, ptr noundef nonnull align 8 dereferenceable(8) %8)
  %10 = load ptr, ptr %5, align 8, !tbaa !9
  %11 = load i64, ptr %6, align 8, !tbaa !16
  %12 = load ptr, ptr %7, align 8, !tbaa !55
  %13 = call i64 @mbrlen(ptr noundef %10, i64 noundef %11, ptr noundef %12) #13
  call void @_ZNSt3__18__locale14__locale_guardD2B8ne210000Ev(ptr noundef nonnull align 8 dereferenceable(8) %9) #13
  call void @llvm.lifetime.end.p0(i64 8, ptr %9) #13
  ret i64 %13
}

; Function Attrs: mustprogress uwtable
define dso_local noundef i32 @_ZNKSt3__17codecvtIwc11__mbstate_tE9do_lengthERS1_PKcS5_m(ptr noundef nonnull align 8 dereferenceable(24) %0, ptr noundef nonnull align 4 dereferenceable(8) %1, ptr noundef %2, ptr noundef %3, i64 noundef %4) unnamed_addr #2 align 2 {
  %6 = alloca i32, align 4
  %7 = alloca ptr, align 8
  %8 = alloca ptr, align 8
  %9 = alloca ptr, align 8
  %10 = alloca ptr, align 8
  %11 = alloca i64, align 8
  %12 = alloca i32, align 4
  %13 = alloca i64, align 8
  %14 = alloca i32, align 4
  %15 = alloca i64, align 8
  store ptr %0, ptr %7, align 8, !tbaa !376
  store ptr %1, ptr %8, align 8, !tbaa !55
  store ptr %2, ptr %9, align 8, !tbaa !9
  store ptr %3, ptr %10, align 8, !tbaa !9
  store i64 %4, ptr %11, align 8, !tbaa !16
  %16 = load ptr, ptr %7, align 8
  call void @llvm.lifetime.start.p0(i64 4, ptr %12) #13
  store i32 0, ptr %12, align 4, !tbaa !41
  call void @llvm.lifetime.start.p0(i64 8, ptr %13) #13
  store i64 0, ptr %13, align 8, !tbaa !16
  br label %17

17:                                               ; preds = %60, %5
  %18 = load i64, ptr %13, align 8, !tbaa !16
  %19 = load i64, ptr %11, align 8, !tbaa !16
  %20 = icmp ult i64 %18, %19
  br i1 %20, label %21, label %25

21:                                               ; preds = %17
  %22 = load ptr, ptr %9, align 8, !tbaa !9
  %23 = load ptr, ptr %10, align 8, !tbaa !9
  %24 = icmp ne ptr %22, %23
  br label %25

25:                                               ; preds = %21, %17
  %26 = phi i1 [ false, %17 ], [ %24, %21 ]
  br i1 %26, label %28, label %27

27:                                               ; preds = %25
  store i32 2, ptr %14, align 4
  br label %63

28:                                               ; preds = %25
  call void @llvm.lifetime.start.p0(i64 8, ptr %15) #13
  %29 = load ptr, ptr %9, align 8, !tbaa !9
  %30 = load ptr, ptr %10, align 8, !tbaa !9
  %31 = load ptr, ptr %9, align 8, !tbaa !9
  %32 = ptrtoint ptr %30 to i64
  %33 = ptrtoint ptr %31 to i64
  %34 = sub i64 %32, %33
  %35 = load ptr, ptr %8, align 8, !tbaa !55
  %36 = getelementptr inbounds nuw %"class.std::__1::codecvt.37", ptr %16, i32 0, i32 1
  %37 = load ptr, ptr %36, align 8, !tbaa !480
  %38 = call noundef i64 @_ZNSt3__18__locale8__mbrlenB8ne210000EPKcmP11__mbstate_tP15__locale_struct(ptr noundef %29, i64 noundef %34, ptr noundef %35, ptr noundef %37)
  store i64 %38, ptr %15, align 8, !tbaa !16
  %39 = load i64, ptr %15, align 8, !tbaa !16
  switch i64 %39, label %47 [
    i64 0, label %40
    i64 -1, label %45
    i64 -2, label %45
  ]

40:                                               ; preds = %28
  %41 = load i32, ptr %12, align 4, !tbaa !41
  %42 = add nsw i32 %41, 1
  store i32 %42, ptr %12, align 4, !tbaa !41
  %43 = load ptr, ptr %9, align 8, !tbaa !9
  %44 = getelementptr inbounds nuw i8, ptr %43, i32 1
  store ptr %44, ptr %9, align 8, !tbaa !9
  br label %56

45:                                               ; preds = %28, %28
  %46 = load i32, ptr %12, align 4, !tbaa !41
  store i32 %46, ptr %6, align 4
  store i32 1, ptr %14, align 4
  br label %57

47:                                               ; preds = %28
  %48 = load i64, ptr %15, align 8, !tbaa !16
  %49 = load i32, ptr %12, align 4, !tbaa !41
  %50 = sext i32 %49 to i64
  %51 = add i64 %50, %48
  %52 = trunc i64 %51 to i32
  store i32 %52, ptr %12, align 4, !tbaa !41
  %53 = load i64, ptr %15, align 8, !tbaa !16
  %54 = load ptr, ptr %9, align 8, !tbaa !9
  %55 = getelementptr inbounds nuw i8, ptr %54, i64 %53
  store ptr %55, ptr %9, align 8, !tbaa !9
  br label %56

56:                                               ; preds = %47, %40
  store i32 0, ptr %14, align 4
  br label %57

57:                                               ; preds = %56, %45
  call void @llvm.lifetime.end.p0(i64 8, ptr %15) #13
  %58 = load i32, ptr %14, align 4
  switch i32 %58, label %63 [
    i32 0, label %59
  ]

59:                                               ; preds = %57
  br label %60

60:                                               ; preds = %59
  %61 = load i64, ptr %13, align 8, !tbaa !16
  %62 = add i64 %61, 1
  store i64 %62, ptr %13, align 8, !tbaa !16
  br label %17, !llvm.loop !495

63:                                               ; preds = %57, %27
  call void @llvm.lifetime.end.p0(i64 8, ptr %13) #13
  %64 = load i32, ptr %14, align 4
  switch i32 %64, label %67 [
    i32 2, label %65
  ]

65:                                               ; preds = %63
  %66 = load i32, ptr %12, align 4, !tbaa !41
  store i32 %66, ptr %6, align 4
  store i32 1, ptr %14, align 4
  br label %67

67:                                               ; preds = %65, %63
  call void @llvm.lifetime.end.p0(i64 4, ptr %12) #13
  %68 = load i32, ptr %6, align 4
  ret i32 %68
}