; Function Attrs: mustprogress nounwind uwtable
define dso_local noundef i32 @_ZNKSt3__17codecvtIwc11__mbstate_tE9do_lengthERS1_PKcS5_m(ptr noundef nonnull readonly align 8 captures(none) dereferenceable(24) %0, ptr noundef nonnull align 4 dereferenceable(8) %1, ptr noundef %2, ptr noundef %3, i64 noundef %4) unnamed_addr #0 align 2 {
  %6 = icmp eq i64 %4, 0
  %7 = icmp eq ptr %2, %3
  %.not3442 = or i1 %6, %7
  br i1 %.not3442, label %_ZNSt3__18__locale8__mbrlenB8ne210000EPKcmP11__mbstate_tP15__locale_struct.exit._crit_edge, label %.lr.ph

.lr.ph:                                           ; preds = %5
  %8 = ptrtoint ptr %3 to i64
  %9 = getelementptr inbounds nuw i8, ptr %0, i64 16
  br label %10

10:                                               ; preds = %.lr.ph, %20
  %.02445 = phi i64 [ 0, %.lr.ph ], [ %22, %20 ]
  %.02544 = phi i32 [ 0, %.lr.ph ], [ %.227, %20 ]
  %.02943 = phi ptr [ %2, %.lr.ph ], [ %21, %20 ]
  %11 = ptrtoint ptr %.02943 to i64
  %12 = sub i64 %8, %11
  %13 = load ptr, ptr %9, align 8, !tbaa !338
  %14 = tail call ptr @uselocale(ptr noundef %13) #45
  %15 = tail call i64 @mbrtowc(ptr noundef null, ptr noundef %.02943, i64 noundef %12, ptr noundef nonnull %1) #45
  %.not.i2.i = icmp eq ptr %14, null
  br i1 %.not.i2.i, label %_ZNSt3__18__locale8__mbrlenB8ne210000EPKcmP11__mbstate_tP15__locale_struct.exit, label %16

16:                                               ; preds = %10
  %17 = tail call ptr @uselocale(ptr noundef nonnull %14) #45
  br label %_ZNSt3__18__locale8__mbrlenB8ne210000EPKcmP11__mbstate_tP15__locale_struct.exit

_ZNSt3__18__locale8__mbrlenB8ne210000EPKcmP11__mbstate_tP15__locale_struct.exit: ; preds = %10, %16
  switch i64 %15, label %18 [
    i64 0, label %20
    i64 -1, label %_ZNSt3__18__locale8__mbrlenB8ne210000EPKcmP11__mbstate_tP15__locale_struct.exit._crit_edge
    i64 -2, label %_ZNSt3__18__locale8__mbrlenB8ne210000EPKcmP11__mbstate_tP15__locale_struct.exit._crit_edge
  ]

18:                                               ; preds = %_ZNSt3__18__locale8__mbrlenB8ne210000EPKcmP11__mbstate_tP15__locale_struct.exit
  %19 = trunc i64 %15 to i32
  br label %20

20:                                               ; preds = %_ZNSt3__18__locale8__mbrlenB8ne210000EPKcmP11__mbstate_tP15__locale_struct.exit, %18
  %.sink = phi i64 [ %15, %18 ], [ 1, %_ZNSt3__18__locale8__mbrlenB8ne210000EPKcmP11__mbstate_tP15__locale_struct.exit ]
  %.pn = phi i32 [ %19, %18 ], [ 1, %_ZNSt3__18__locale8__mbrlenB8ne210000EPKcmP11__mbstate_tP15__locale_struct.exit ]
  %21 = getelementptr inbounds nuw i8, ptr %.02943, i64 %.sink
  %.227 = add i32 %.pn, %.02544
  %22 = add nuw i64 %.02445, 1
  %23 = icmp uge i64 %22, %4
  %24 = icmp eq ptr %21, %3
  %.not34 = select i1 %23, i1 true, i1 %24
  br i1 %.not34, label %_ZNSt3__18__locale8__mbrlenB8ne210000EPKcmP11__mbstate_tP15__locale_struct.exit._crit_edge, label %10, !llvm.loop !418

_ZNSt3__18__locale8__mbrlenB8ne210000EPKcmP11__mbstate_tP15__locale_struct.exit._crit_edge: ; preds = %20, %_ZNSt3__18__locale8__mbrlenB8ne210000EPKcmP11__mbstate_tP15__locale_struct.exit, %_ZNSt3__18__locale8__mbrlenB8ne210000EPKcmP11__mbstate_tP15__locale_struct.exit, %5
  %.025.lcssa = phi i32 [ 0, %5 ], [ %.02544, %_ZNSt3__18__locale8__mbrlenB8ne210000EPKcmP11__mbstate_tP15__locale_struct.exit ], [ %.02544, %_ZNSt3__18__locale8__mbrlenB8ne210000EPKcmP11__mbstate_tP15__locale_struct.exit ], [ %.227, %20 ]
  ret i32 %.025.lcssa
}